target datalayout = "e-m:e-p270:32:32-p271:32:32-p272:64:64-i64:64-i128:128-f80:128-n8:16:32:64-S128"
target triple = "x86_64-pc-linux-gnu"

%struct._zval_struct = type { %union._zend_value, %union.anon, %union.anon.2 }
%union._zend_value = type { i64 }
%union.anon = type { i32 }
%union.anon.2 = type { i32 }
%struct._zend_array = type { %struct._zend_refcounted_h, %union.anon.5, i32, %union.anon.7, i32, i32, i32, i32, i64, ptr }
%struct._zend_refcounted_h = type { i32, %union.anon.3 }
%union.anon.3 = type { i32 }
%union.anon.5 = type { i32 }
%union.anon.7 = type { ptr }
%struct._zend_object_handlers = type { i32, ptr, ptr, ptr, ptr, ptr, ptr, ptr, ptr, ptr, ptr, ptr, ptr, ptr, ptr, ptr, ptr, ptr, ptr, ptr, ptr, ptr, ptr, ptr, ptr }
%struct._zend_string = type { %struct._zend_refcounted_h, i64, i64, [1 x i8] }
%struct._zend_object = type { %struct._zend_refcounted_h, i32, i32, ptr, ptr, ptr, [1 x %struct._zval_struct] }
%struct._zend_class_entry = type { i8, ptr, %union.anon.4, i32, i32, i32, i32, ptr, ptr, ptr, %struct._zend_array, %struct._zend_array, %struct._zend_array, ptr, ptr, ptr, ptr, ptr, ptr, ptr, ptr, ptr, ptr, ptr, ptr, ptr, ptr, ptr, ptr, ptr, ptr, ptr, %union.anon.8, ptr, ptr, ptr, ptr, i32, i32, i32, i32, %union.anon.9, ptr, ptr, ptr, ptr, i32, ptr, ptr, %union.anon.10 }
%union.anon.4 = type { ptr }
%union.anon.8 = type { ptr }
%union.anon.9 = type { ptr }
%union.anon.10 = type { %struct.anon.11 }
%struct.anon.11 = type { ptr, i32, i32 }
%struct.anon.0 = type { i8, i8, %union.anon.1 }
%union.anon.1 = type { i16 }

@.str.28 = private unnamed_addr constant [50 x i8] c"Object of class %s could not be converted to bool\00", align 1

; Function Attrs: alwaysinline nounwind uwtable
define internal zeroext i8 @zval_get_type(ptr noundef %0) #1 {
  %2 = alloca ptr, align 8
  store ptr %0, ptr %2, align 8, !tbaa !12
  %3 = load ptr, ptr %2, align 8, !tbaa !12
  %4 = getelementptr inbounds nuw %struct._zval_struct, ptr %3, i32 0, i32 1
  %5 = getelementptr inbounds nuw %struct.anon.0, ptr %4, i32 0, i32 0
  %6 = load i8, ptr %5, align 8, !tbaa !11
  ret i8 %6
}

; Function Attrs: nounwind uwtable
define dso_local zeroext i1 @zend_object_is_true(ptr noundef %0) #0 {
  %2 = alloca i1, align 1
  %3 = alloca ptr, align 8
  %4 = alloca ptr, align 8
  %5 = alloca %struct._zval_struct, align 8
  %6 = alloca i32, align 4
  store ptr %0, ptr %3, align 8, !tbaa !12
  call void @llvm.lifetime.start.p0(i64 8, ptr %4) #20
  %7 = load ptr, ptr %3, align 8, !tbaa !12
  %8 = getelementptr inbounds nuw %struct._zval_struct, ptr %7, i32 0, i32 0
  %9 = load ptr, ptr %8, align 8, !tbaa !11
  store ptr %9, ptr %4, align 8, !tbaa !94
  call void @llvm.lifetime.start.p0(i64 16, ptr %5) #20
  %10 = load ptr, ptr %4, align 8, !tbaa !94
  %11 = getelementptr inbounds nuw %struct._zend_object, ptr %10, i32 0, i32 4
  %12 = load ptr, ptr %11, align 8, !tbaa !22
  %13 = getelementptr inbounds nuw %struct._zend_object_handlers, ptr %12, i32 0, i32 17
  %14 = load ptr, ptr %13, align 8, !tbaa !27
  %15 = load ptr, ptr %4, align 8, !tbaa !94
  %16 = call i32 %14(ptr noundef %15, ptr noundef %5, i32 noundef 18)
  %17 = icmp eq i32 %16, 0
  br i1 %17, label %18, label %22

18:                                               ; preds = %1
  %19 = call zeroext i8 @zval_get_type(ptr noundef %5)
  %20 = zext i8 %19 to i32
  %21 = icmp eq i32 %20, 3
  store i1 %21, ptr %2, align 1
  store i32 1, ptr %6, align 4
  br label %30

22:                                               ; preds = %1
  %23 = load ptr, ptr %4, align 8, !tbaa !94
  %24 = getelementptr inbounds nuw %struct._zend_object, ptr %23, i32 0, i32 3
  %25 = load ptr, ptr %24, align 8, !tbaa !29
  %26 = getelementptr inbounds nuw %struct._zend_class_entry, ptr %25, i32 0, i32 1
  %27 = load ptr, ptr %26, align 8, !tbaa !30
  %28 = getelementptr inbounds nuw %struct._zend_string, ptr %27, i32 0, i32 3
  %29 = getelementptr inbounds [1 x i8], ptr %28, i64 0, i64 0
  call void (i32, ptr, ...) @zend_error(i32 noundef 4096, ptr noundef @.str.28, ptr noundef %29)
  store i1 false, ptr %2, align 1
  store i32 1, ptr %6, align 4
  br label %30

30:                                               ; preds = %22, %18
  call void @llvm.lifetime.end.p0(i64 16, ptr %5) #20
  call void @llvm.lifetime.end.p0(i64 8, ptr %4) #20
  %31 = load i1, ptr %2, align 1
  ret i1 %31
}