; Function Attrs: nounwind uwtable
define dso_local zeroext i1 @zend_object_is_true(ptr noundef readonly captures(none) %0) local_unnamed_addr #1 {
  %2 = alloca %struct._zval_struct, align 8
  %3 = load ptr, ptr %0, align 8, !tbaa !4
  call void @llvm.lifetime.start.p0(i64 16, ptr nonnull %2) #28
  %4 = getelementptr inbounds nuw i8, ptr %3, i64 24
  %5 = load ptr, ptr %4, align 8, !tbaa !16
  %6 = getelementptr inbounds nuw i8, ptr %5, i64 136
  %7 = load ptr, ptr %6, align 8, !tbaa !21
  %8 = call i32 %7(ptr noundef %3, ptr noundef nonnull %2, i32 noundef 18) #28
  %9 = icmp eq i32 %8, 0
  br i1 %9, label %10, label %14

10:                                               ; preds = %1
  %11 = getelementptr inbounds nuw i8, ptr %2, i64 8
  %12 = load i8, ptr %11, align 8, !tbaa !4
  %13 = icmp eq i8 %12, 3
  br label %20

14:                                               ; preds = %1
  %15 = getelementptr inbounds nuw i8, ptr %3, i64 16
  %16 = load ptr, ptr %15, align 8, !tbaa !23
  %17 = getelementptr inbounds nuw i8, ptr %16, i64 8
  %18 = load ptr, ptr %17, align 8, !tbaa !24
  %19 = getelementptr inbounds nuw i8, ptr %18, i64 24
  call void (i32, ptr, ...) @zend_error(i32 noundef 4096, ptr noundef nonnull @.str.28, ptr noundef nonnull %19) #28
  br label %20

20:                                               ; preds = %14, %10
  %.0 = phi i1 [ %13, %10 ], [ false, %14 ]
  call void @llvm.lifetime.end.p0(i64 16, ptr nonnull %2) #28
  ret i1 %.0
}